target datalayout = "e-m:e-p270:32:32-p271:32:32-p272:64:64-i64:64-i128:128-f80:128-n8:16:32:64-S128"
target triple = "x86_64-pc-linux-gnu"

%class.CVQualifiers = type { ptr, i8, i8, %"class.std::vector", %"class.std::vector" }
%"class.std::vector" = type { %"struct.std::_Bvector_base" }
%"struct.std::_Bvector_base" = type { %"struct.std::_Bvector_base<std::allocator<bool>>::_Bvector_impl" }
%"struct.std::_Bvector_base<std::allocator<bool>>::_Bvector_impl" = type { %"struct.std::_Bvector_base<std::allocator<bool>>::_Bvector_impl_data" }
%"struct.std::_Bvector_base<std::allocator<bool>>::_Bvector_impl_data" = type { %"struct.std::_Bit_iterator", %"struct.std::_Bit_iterator", ptr }
%"struct.std::_Bit_iterator" = type { %"struct.std::_Bit_iterator_base.base", [4 x i8] }
%"struct.std::_Bit_iterator_base.base" = type <{ ptr, i32 }>

@_ZTV12CVQualifiers = dso_local unnamed_addr constant { [4 x ptr] } { [4 x ptr] [ptr null, ptr @_ZTI12CVQualifiers, ptr @_ZN12CVQualifiersD1Ev, ptr @_ZN12CVQualifiersD0Ev] }, align 8

; Function Attrs: mustprogress uwtable
define dso_local void @_ZN12CVQualifiersC2ERKSt6vectorIbSaIbEES4_(ptr noundef nonnull align 8 dereferenceable(96) %0, ptr noundef nonnull align 8 dereferenceable(40) %1, ptr noundef nonnull align 8 dereferenceable(40) %2) unnamed_addr #5 align 2 personality ptr @__gxx_personality_v0 {
  %4 = alloca ptr, align 8
  %5 = alloca ptr, align 8
  %6 = alloca ptr, align 8
  %7 = alloca ptr, align 8
  %8 = alloca i32, align 4
  store ptr %0, ptr %4, align 8
  store ptr %1, ptr %5, align 8
  store ptr %2, ptr %6, align 8
  %9 = load ptr, ptr %4, align 8
  store ptr getelementptr inbounds ({ [4 x ptr] }, ptr @_ZTV12CVQualifiers, i32 0, i32 0, i32 2), ptr %9, align 8
  %10 = getelementptr inbounds %class.CVQualifiers, ptr %9, i32 0, i32 1
  store i8 0, ptr %10, align 8
  %11 = getelementptr inbounds %class.CVQualifiers, ptr %9, i32 0, i32 2
  store i8 0, ptr %11, align 1
  %12 = getelementptr inbounds %class.CVQualifiers, ptr %9, i32 0, i32 3
  %13 = load ptr, ptr %5, align 8
  call void @_ZNSt6vectorIbSaIbEEC2ERKS1_(ptr noundef nonnull align 8 dereferenceable(40) %12, ptr noundef nonnull align 8 dereferenceable(40) %13)
  %14 = getelementptr inbounds %class.CVQualifiers, ptr %9, i32 0, i32 4
  %15 = load ptr, ptr %6, align 8
  invoke void @_ZNSt6vectorIbSaIbEEC2ERKS1_(ptr noundef nonnull align 8 dereferenceable(40) %14, ptr noundef nonnull align 8 dereferenceable(40) %15)
          to label %16 unwind label %17

16:                                               ; preds = %3
  ret void

17:                                               ; preds = %3
  %18 = landingpad { ptr, i32 }
          cleanup
  %19 = extractvalue { ptr, i32 } %18, 0
  store ptr %19, ptr %7, align 8
  %20 = extractvalue { ptr, i32 } %18, 1
  store i32 %20, ptr %8, align 4
  call void @_ZNSt6vectorIbSaIbEED2Ev(ptr noundef nonnull align 8 dereferenceable(40) %12) #3
  br label %21

21:                                               ; preds = %17
  %22 = load ptr, ptr %7, align 8
  %23 = load i32, ptr %8, align 4
  %24 = insertvalue { ptr, i32 } poison, ptr %22, 0
  %25 = insertvalue { ptr, i32 } %24, i32 %23, 1
  resume { ptr, i32 } %25
}