; Function Attrs: mustprogress uwtable
define dso_local void @_ZN12CVQualifiersC2ERKSt6vectorIbSaIbEES4_(ptr noundef nonnull align 8 dereferenceable(96) %0, ptr noundef nonnull align 8 dereferenceable(40) %1, ptr noundef nonnull align 8 dereferenceable(40) %2) unnamed_addr #4 align 2 personality ptr @__gxx_personality_v0 {
  store ptr getelementptr inbounds ({ [4 x ptr] }, ptr @_ZTV12CVQualifiers, i64 0, i32 0, i64 2), ptr %0, align 8
  %4 = getelementptr inbounds i8, ptr %0, i64 8
  store i8 0, ptr %4, align 8
  %5 = getelementptr inbounds i8, ptr %0, i64 9
  store i8 0, ptr %5, align 1
  %6 = getelementptr inbounds i8, ptr %0, i64 16
  tail call void @_ZNSt6vectorIbSaIbEEC2ERKS1_(ptr noundef nonnull align 8 dereferenceable(40) %6, ptr noundef nonnull align 8 dereferenceable(40) %1)
  %7 = getelementptr inbounds i8, ptr %0, i64 56
  invoke void @_ZNSt6vectorIbSaIbEEC2ERKS1_(ptr noundef nonnull align 8 dereferenceable(40) %7, ptr noundef nonnull align 8 dereferenceable(40) %2)
          to label %8 unwind label %9

8:                                                ; preds = %3
  ret void

9:                                                ; preds = %3
  %10 = landingpad { ptr, i32 }
          cleanup
  tail call void @_ZNSt6vectorIbSaIbEED2Ev(ptr noundef nonnull align 8 dereferenceable(40) %6) #18
  resume { ptr, i32 } %10
}